target datalayout = "e-m:e-p270:32:32-p271:32:32-p272:64:64-i64:64-i128:128-f80:128-n8:16:32:64-S128"
target triple = "x86_64-pc-linux-gnu"

%struct.ident_t = type { i32, i32, i32, i32, ptr }
%"class.ncnn::Mat" = type { ptr, ptr, i64, i32, ptr, i32, i32, i32, i32, i32, i64 }
%"class.ncnn::Option" = type { i8, i32, ptr, ptr, i32, i8, i8, i8, i8, i8, i8, i8, i8, i8, i8, i8, i8, i8, i8, i8, i8, i8, i8, i8, i8, i32, i8, i8, i8, i8, i8, i8, i8, i8, i8, i8, i8, i8 }

@2 = private unnamed_addr constant %struct.ident_t { i32 0, i32 2, i32 0, i32 22, ptr @0 }, align 8

; Function Attrs: mustprogress nounwind uwtable
define hidden noundef i32 @_ZNK4ncnn12InstanceNorm15forward_inplaceERNS_3MatERKNS_6OptionE(ptr noundef nonnull align 8 dereferenceable(368) %0, ptr noundef nonnull align 8 dereferenceable(72) %1, ptr noundef nonnull align 8 dereferenceable(64) %2) unnamed_addr #3 align 2 {
  %4 = alloca ptr, align 8
  %5 = alloca ptr, align 8
  %6 = alloca ptr, align 8
  %7 = alloca i32, align 4
  %8 = alloca i32, align 4
  %9 = alloca i32, align 4
  %10 = alloca i32, align 4
  %11 = call i32 @__kmpc_global_thread_num(ptr @2)
  store ptr %0, ptr %4, align 8, !tbaa !4
  store ptr %1, ptr %5, align 8, !tbaa !39
  store ptr %2, ptr %6, align 8, !tbaa !40
  %12 = load ptr, ptr %4, align 8
  call void @llvm.lifetime.start.p0(i64 4, ptr %7) #10
  %13 = load ptr, ptr %5, align 8, !tbaa !39
  %14 = getelementptr inbounds nuw %"class.ncnn::Mat", ptr %13, i32 0, i32 6
  %15 = load i32, ptr %14, align 4, !tbaa !42
  store i32 %15, ptr %7, align 4, !tbaa !43
  call void @llvm.lifetime.start.p0(i64 4, ptr %8) #10
  %16 = load ptr, ptr %5, align 8, !tbaa !39
  %17 = getelementptr inbounds nuw %"class.ncnn::Mat", ptr %16, i32 0, i32 7
  %18 = load i32, ptr %17, align 8, !tbaa !44
  store i32 %18, ptr %8, align 4, !tbaa !43
  call void @llvm.lifetime.start.p0(i64 4, ptr %9) #10
  %19 = load ptr, ptr %5, align 8, !tbaa !39
  %20 = getelementptr inbounds nuw %"class.ncnn::Mat", ptr %19, i32 0, i32 9
  %21 = load i32, ptr %20, align 8, !tbaa !45
  store i32 %21, ptr %9, align 4, !tbaa !43
  call void @llvm.lifetime.start.p0(i64 4, ptr %10) #10
  %22 = load i32, ptr %7, align 4, !tbaa !43
  %23 = load i32, ptr %8, align 4, !tbaa !43
  %24 = mul nsw i32 %22, %23
  store i32 %24, ptr %10, align 4, !tbaa !43
  %25 = load ptr, ptr %6, align 8, !tbaa !40
  %26 = getelementptr inbounds nuw %"class.ncnn::Option", ptr %25, i32 0, i32 1
  %27 = load i32, ptr %26, align 4, !tbaa !46
  call void @__kmpc_push_num_threads(ptr @2, i32 %11, i32 %27)
  %28 = load ptr, ptr %5, align 8, !tbaa !39
  call void (ptr, i32, ptr, ...) @__kmpc_fork_call(ptr @2, i32 4, ptr @_ZNK4ncnn12InstanceNorm15forward_inplaceERNS_3MatERKNS_6OptionE.omp_outlined, ptr %9, ptr %28, ptr %10, ptr %12)
  call void @llvm.lifetime.end.p0(i64 4, ptr %10) #10
  call void @llvm.lifetime.end.p0(i64 4, ptr %9) #10
  call void @llvm.lifetime.end.p0(i64 4, ptr %8) #10
  call void @llvm.lifetime.end.p0(i64 4, ptr %7) #10
  ret i32 0
}